; Function Attrs: mustprogress uwtable
define hidden void @_ZN20demodulator_rewriter14insert_bwd_idxEP4expr(ptr noundef nonnull align 8 dereferenceable(872) %0, ptr noundef %1) local_unnamed_addr #3 align 2 personality ptr @__gxx_personality_v0 {
  %3 = alloca %class.obj_mark, align 8
  %4 = alloca %"class.demodulator_rewriter::add_back_idx_proc", align 8
  call void @llvm.lifetime.start.p0(i64 16, ptr nonnull %4) #22
  %5 = getelementptr inbounds nuw i8, ptr %0, i64 280
  store ptr %5, ptr %4, align 8, !tbaa !347
  %6 = getelementptr inbounds nuw i8, ptr %4, i64 8
  store ptr %1, ptr %6, align 8, !tbaa !349
  call void @llvm.lifetime.start.p0(i64 24, ptr nonnull %3) #22
  %7 = getelementptr inbounds nuw i8, ptr %3, i64 8
  call void @llvm.memset.p0.i64(ptr noundef nonnull align 8 dereferenceable(16) %7, i8 0, i64 16, i1 false)
  invoke void @_Z18for_each_expr_coreIN20demodulator_rewriter17add_back_idx_procE8obj_markI4expr10bit_vector14default_t2uintIS3_EELb0ELb0EEvRT_RT0_PS3_(ptr noundef nonnull align 8 dereferenceable(16) %4, ptr noundef nonnull align 8 dereferenceable(24) %3, ptr noundef %1)
          to label %8 unwind label %16

8:                                                ; preds = %2
  %9 = getelementptr inbounds nuw i8, ptr %3, i64 16
  %10 = load ptr, ptr %9, align 8, !tbaa !14
  %11 = icmp eq ptr %10, null
  br i1 %11, label %_Z13for_each_exprIN20demodulator_rewriter17add_back_idx_procEEvRT_P4expr.exit, label %12

12:                                               ; preds = %8
  invoke void @_ZN6memory10deallocateEPv(ptr noundef nonnull %10)
          to label %_Z13for_each_exprIN20demodulator_rewriter17add_back_idx_procEEvRT_P4expr.exit unwind label %13

13:                                               ; preds = %12
  %14 = landingpad { ptr, i32 }
          catch ptr null
  %15 = extractvalue { ptr, i32 } %14, 0
  call void @__clang_call_terminate(ptr %15) #23
  unreachable

16:                                               ; preds = %2
  %17 = landingpad { ptr, i32 }
          cleanup
  call void @_ZN8obj_markI4expr10bit_vector14default_t2uintIS0_EED2Ev(ptr noundef nonnull align 8 dereferenceable(24) %3) #22
  call void @llvm.lifetime.end.p0(i64 24, ptr nonnull %3) #22
  resume { ptr, i32 } %17

_Z13for_each_exprIN20demodulator_rewriter17add_back_idx_procEEvRT_P4expr.exit: ; preds = %8, %12
  call void @llvm.lifetime.end.p0(i64 24, ptr nonnull %3) #22
  call void @llvm.lifetime.end.p0(i64 16, ptr nonnull %4) #22
  ret void
}